target datalayout = "e-m:e-p270:32:32-p271:32:32-p272:64:64-i64:64-i128:128-f80:128-n8:16:32:64-S128"
target triple = "x86_64-unknown-linux-gnu"

%"class.icu_75::StringPiece" = type <{ ptr, i32, [4 x i8] }>
%"class.icu_75::LocaleMatcher::Builder" = type { i32, ptr, i32, i32, ptr, i8, i32, i32, ptr, ptr }
%"class.icu_75::LocalPointer" = type { %"class.icu_75::LocalPointerBase" }
%"class.icu_75::LocalPointerBase" = type { ptr }
%"class.icu_75::LocalePriorityList" = type { ptr, i32, i32, i8, ptr }

; Function Attrs: mustprogress nounwind uwtable
define linkonce_odr void @_ZN6icu_7516LocalPointerBaseINS_7UVectorEED2Ev(ptr noundef nonnull align 8 dereferenceable(8) %this) unnamed_addr #0 comdat align 2 {
entry:
  %this.addr = alloca ptr, align 8
  store ptr %this, ptr %this.addr, align 8
  ret void
}

; Function Attrs: mustprogress nounwind uwtable
define internal noundef signext i8 @_ZL9U_SUCCESS10UErrorCode(i32 noundef %code) #0 {
entry:
  %code.addr = alloca i32, align 4
  store i32 %code, ptr %code.addr, align 4
  %0 = load i32, ptr %code.addr, align 4
  %cmp = icmp sle i32 %0, 0
  %conv = zext i1 %cmp to i8
  ret i8 %conv
}

; Function Attrs: mustprogress nounwind uwtable
define linkonce_odr void @_ZN6icu_7516LocalPointerBaseINS_7UVectorEEC2EPS1_(ptr noundef nonnull align 8 dereferenceable(8) %this, ptr noundef %p) unnamed_addr #0 comdat align 2 {
entry:
  %this.addr = alloca ptr, align 8
  %p.addr = alloca ptr, align 8
  store ptr %this, ptr %this.addr, align 8
  store ptr %p, ptr %p.addr, align 8
  %this1 = load ptr, ptr %this.addr, align 8
  %ptr = getelementptr inbounds %"class.icu_75::LocalPointerBase", ptr %this1, i32 0, i32 0
  %0 = load ptr, ptr %p.addr, align 8
  store ptr %0, ptr %ptr, align 8
  ret void
}

; Function Attrs: mustprogress nounwind uwtable
define linkonce_odr noundef ptr @_ZN6icu_7516LocalPointerBaseINS_7UVectorEE6orphanEv(ptr noundef nonnull align 8 dereferenceable(8) %this) #0 comdat align 2 {
entry:
  %this.addr = alloca ptr, align 8
  %p = alloca ptr, align 8
  store ptr %this, ptr %this.addr, align 8
  %this1 = load ptr, ptr %this.addr, align 8
  %ptr = getelementptr inbounds %"class.icu_75::LocalPointerBase", ptr %this1, i32 0, i32 0
  %0 = load ptr, ptr %ptr, align 8
  store ptr %0, ptr %p, align 8
  %ptr2 = getelementptr inbounds %"class.icu_75::LocalPointerBase", ptr %this1, i32 0, i32 0
  store ptr null, ptr %ptr2, align 8
  %1 = load ptr, ptr %p, align 8
  ret ptr %1
}

; Function Attrs: mustprogress nounwind uwtable
define linkonce_odr void @_ZN6icu_7512LocalPointerINS_7UVectorEED2Ev(ptr noundef nonnull align 8 dereferenceable(8) %this) unnamed_addr #0 comdat align 2 {
entry:
  %this.addr = alloca ptr, align 8
  store ptr %this, ptr %this.addr, align 8
  %this1 = load ptr, ptr %this.addr, align 8
  %ptr = getelementptr inbounds %"class.icu_75::LocalPointerBase", ptr %this1, i32 0, i32 0
  %0 = load ptr, ptr %ptr, align 8
  %isnull = icmp eq ptr %0, null
  br i1 %isnull, label %delete.end, label %delete.notnull

delete.notnull:                                   ; preds = %entry
  %vtable = load ptr, ptr %0, align 8
  %vfn = getelementptr inbounds ptr, ptr %vtable, i64 1
  %1 = load ptr, ptr %vfn, align 8
  call void %1(ptr noundef nonnull align 8 dereferenceable(40) %0) #11
  br label %delete.end

delete.end:                                       ; preds = %delete.notnull, %entry
  call void @_ZN6icu_7516LocalPointerBaseINS_7UVectorEED2Ev(ptr noundef nonnull align 8 dereferenceable(8) %this1) #11
  ret void
}

; Function Attrs: mustprogress uwtable
define linkonce_odr void @_ZN6icu_7512LocalPointerINS_7UVectorEEC2EPS1_R10UErrorCode(ptr noundef nonnull align 8 dereferenceable(8) %this, ptr noundef %p, ptr noundef nonnull align 4 dereferenceable(4) %errorCode) unnamed_addr #1 comdat align 2 {
entry:
  %this.addr = alloca ptr, align 8
  %p.addr = alloca ptr, align 8
  %errorCode.addr = alloca ptr, align 8
  store ptr %this, ptr %this.addr, align 8
  store ptr %p, ptr %p.addr, align 8
  store ptr %errorCode, ptr %errorCode.addr, align 8
  %this1 = load ptr, ptr %this.addr, align 8
  %0 = load ptr, ptr %p.addr, align 8
  call void @_ZN6icu_7516LocalPointerBaseINS_7UVectorEEC2EPS1_(ptr noundef nonnull align 8 dereferenceable(8) %this1, ptr noundef %0)
  %1 = load ptr, ptr %p.addr, align 8
  %cmp = icmp eq ptr %1, null
  br i1 %cmp, label %land.lhs.true, label %if.end

land.lhs.true:                                    ; preds = %entry
  %2 = load ptr, ptr %errorCode.addr, align 8
  %3 = load i32, ptr %2, align 4
  %call = call noundef signext i8 @_ZL9U_SUCCESS10UErrorCode(i32 noundef %3)
  %tobool = icmp ne i8 %call, 0
  br i1 %tobool, label %if.then, label %if.end

if.then:                                          ; preds = %land.lhs.true
  %4 = load ptr, ptr %errorCode.addr, align 8
  store i32 7, ptr %4, align 4
  br label %if.end

if.end:                                           ; preds = %if.then, %land.lhs.true, %entry
  ret void
}

; Function Attrs: mustprogress nounwind uwtable
define linkonce_odr noundef i32 @_ZNK6icu_7518LocalePriorityList25getLengthIncludingRemovedEv(ptr noundef nonnull align 8 dereferenceable(32) %this) #0 comdat align 2 {
entry:
  %this.addr = alloca ptr, align 8
  store ptr %this, ptr %this.addr, align 8
  %this1 = load ptr, ptr %this.addr, align 8
  %listLength = getelementptr inbounds %"class.icu_75::LocalePriorityList", ptr %this1, i32 0, i32 1
  %0 = load i32, ptr %listLength, align 8
  ret i32 %0
}

; Function Attrs: mustprogress uwtable
define noundef zeroext i1 @_ZN6icu_7513LocaleMatcher7Builder27ensureSupportedLocaleVectorEv(ptr noundef nonnull align 8 dereferenceable(64) %this) #1 align 2 personality ptr @__gxx_personality_v0 {
entry:
  %retval = alloca i1, align 1
  %this.addr = alloca ptr, align 8
  %lpSupportedLocales = alloca %"class.icu_75::LocalPointer", align 8
  %saved-rvalue = alloca ptr, align 8
  %cleanup.cond = alloca i1, align 1
  %exn.slot = alloca ptr, align 8
  %ehselector.slot = alloca i32, align 4
  %cleanup.dest.slot = alloca i32, align 4
  store ptr %this, ptr %this.addr, align 8
  %this1 = load ptr, ptr %this.addr, align 8
  %errorCode_ = getelementptr inbounds %"class.icu_75::LocaleMatcher::Builder", ptr %this1, i32 0, i32 0
  %0 = load i32, ptr %errorCode_, align 8
  %call = call noundef signext i8 @_ZL9U_FAILURE10UErrorCode(i32 noundef %0)
  %tobool = icmp ne i8 %call, 0
  br i1 %tobool, label %if.then, label %if.end

if.then:                                          ; preds = %entry
  store i1 false, ptr %retval, align 1
  br label %return

if.end:                                           ; preds = %entry
  %supportedLocales_ = getelementptr inbounds %"class.icu_75::LocaleMatcher::Builder", ptr %this1, i32 0, i32 1
  %1 = load ptr, ptr %supportedLocales_, align 8
  %cmp = icmp ne ptr %1, null
  br i1 %cmp, label %if.then2, label %if.end3

if.then2:                                         ; preds = %if.end
  store i1 true, ptr %retval, align 1
  br label %return

if.end3:                                          ; preds = %if.end
  %call4 = call noundef ptr @_ZN6icu_757UMemorynwEm(i64 noundef 40) #11
  %new.isnull = icmp eq ptr %call4, null
  store i1 false, ptr %cleanup.cond, align 1
  br i1 %new.isnull, label %new.cont, label %new.notnull

new.notnull:                                      ; preds = %if.end3
  store ptr %call4, ptr %saved-rvalue, align 8
  store i1 true, ptr %cleanup.cond, align 1
  %errorCode_5 = getelementptr inbounds %"class.icu_75::LocaleMatcher::Builder", ptr %this1, i32 0, i32 0
  invoke void @_ZN6icu_757UVectorC1EPFvPvEPFa8UElementS4_ER10UErrorCode(ptr noundef nonnull align 8 dereferenceable(40) %call4, ptr noundef @uprv_deleteUObject_75, ptr noundef null, ptr noundef nonnull align 4 dereferenceable(4) %errorCode_5)
          to label %invoke.cont unwind label %lpad

invoke.cont:                                      ; preds = %new.notnull
  br label %new.cont

new.cont:                                         ; preds = %invoke.cont, %if.end3
  %2 = phi ptr [ %call4, %invoke.cont ], [ null, %if.end3 ]
  %errorCode_6 = getelementptr inbounds %"class.icu_75::LocaleMatcher::Builder", ptr %this1, i32 0, i32 0
  call void @_ZN6icu_7512LocalPointerINS_7UVectorEEC2EPS1_R10UErrorCode(ptr noundef nonnull align 8 dereferenceable(8) %lpSupportedLocales, ptr noundef %2, ptr noundef nonnull align 4 dereferenceable(4) %errorCode_6)
  %errorCode_7 = getelementptr inbounds %"class.icu_75::LocaleMatcher::Builder", ptr %this1, i32 0, i32 0
  %3 = load i32, ptr %errorCode_7, align 8
  %call10 = invoke noundef signext i8 @_ZL9U_FAILURE10UErrorCode(i32 noundef %3)
          to label %invoke.cont9 unwind label %lpad8

invoke.cont9:                                     ; preds = %new.cont
  %tobool11 = icmp ne i8 %call10, 0
  br i1 %tobool11, label %if.then12, label %if.end13

if.then12:                                        ; preds = %invoke.cont9
  store i1 false, ptr %retval, align 1
  store i32 1, ptr %cleanup.dest.slot, align 4
  br label %cleanup

lpad:                                             ; preds = %new.notnull
  %4 = landingpad { ptr, i32 }
          cleanup
  %5 = extractvalue { ptr, i32 } %4, 0
  store ptr %5, ptr %exn.slot, align 8
  %6 = extractvalue { ptr, i32 } %4, 1
  store i32 %6, ptr %ehselector.slot, align 4
  %cleanup.is_active = load i1, ptr %cleanup.cond, align 1
  br i1 %cleanup.is_active, label %cleanup.action, label %cleanup.done

cleanup.action:                                   ; preds = %lpad
  %7 = load ptr, ptr %saved-rvalue, align 8
  call void @_ZN6icu_757UMemorydlEPv(ptr noundef %7) #11
  br label %cleanup.done

cleanup.done:                                     ; preds = %cleanup.action, %lpad
  br label %eh.resume

lpad8:                                            ; preds = %if.end13, %new.cont
  %8 = landingpad { ptr, i32 }
          cleanup
  %9 = extractvalue { ptr, i32 } %8, 0
  store ptr %9, ptr %exn.slot, align 8
  %10 = extractvalue { ptr, i32 } %8, 1
  store i32 %10, ptr %ehselector.slot, align 4
  call void @_ZN6icu_7512LocalPointerINS_7UVectorEED2Ev(ptr noundef nonnull align 8 dereferenceable(8) %lpSupportedLocales) #11
  br label %eh.resume

if.end13:                                         ; preds = %invoke.cont9
  %call15 = invoke noundef ptr @_ZN6icu_7516LocalPointerBaseINS_7UVectorEE6orphanEv(ptr noundef nonnull align 8 dereferenceable(8) %lpSupportedLocales)
          to label %invoke.cont14 unwind label %lpad8

invoke.cont14:                                    ; preds = %if.end13
  %supportedLocales_16 = getelementptr inbounds %"class.icu_75::LocaleMatcher::Builder", ptr %this1, i32 0, i32 1
  store ptr %call15, ptr %supportedLocales_16, align 8
  store i1 true, ptr %retval, align 1
  store i32 1, ptr %cleanup.dest.slot, align 4
  br label %cleanup

cleanup:                                          ; preds = %invoke.cont14, %if.then12
  call void @_ZN6icu_7512LocalPointerINS_7UVectorEED2Ev(ptr noundef nonnull align 8 dereferenceable(8) %lpSupportedLocales) #11
  br label %return

return:                                           ; preds = %cleanup, %if.then2, %if.then
  %11 = load i1, ptr %retval, align 1
  ret i1 %11

eh.resume:                                        ; preds = %lpad8, %cleanup.done
  %exn = load ptr, ptr %exn.slot, align 8
  %sel = load i32, ptr %ehselector.slot, align 4
  %lpad.val = insertvalue { ptr, i32 } poison, ptr %exn, 0
  %lpad.val17 = insertvalue { ptr, i32 } %lpad.val, i32 %sel, 1
  resume { ptr, i32 } %lpad.val17
}

; Function Attrs: mustprogress uwtable
define void @_ZN6icu_7513LocaleMatcher7Builder21clearSupportedLocalesEv(ptr noundef nonnull align 8 dereferenceable(64) %this) #1 align 2 {
entry:
  %this.addr = alloca ptr, align 8
  store ptr %this, ptr %this.addr, align 8
  %this1 = load ptr, ptr %this.addr, align 8
  %supportedLocales_ = getelementptr inbounds %"class.icu_75::LocaleMatcher::Builder", ptr %this1, i32 0, i32 1
  %0 = load ptr, ptr %supportedLocales_, align 8
  %cmp = icmp ne ptr %0, null
  br i1 %cmp, label %if.then, label %if.end

if.then:                                          ; preds = %entry
  %supportedLocales_2 = getelementptr inbounds %"class.icu_75::LocaleMatcher::Builder", ptr %this1, i32 0, i32 1
  %1 = load ptr, ptr %supportedLocales_2, align 8
  call void @_ZN6icu_757UVector17removeAllElementsEv(ptr noundef nonnull align 8 dereferenceable(40) %1)
  br label %if.end

if.end:                                           ; preds = %if.then, %entry
  ret void
}

; Function Attrs: mustprogress nounwind uwtable
define internal noundef signext i8 @_ZL9U_FAILURE10UErrorCode(i32 noundef %code) #0 {
entry:
  %code.addr = alloca i32, align 4
  store i32 %code, ptr %code.addr, align 4
  %0 = load i32, ptr %code.addr, align 4
  %cmp = icmp sgt i32 %0, 0
  %conv = zext i1 %cmp to i8
  ret i8 %conv
}

; Function Attrs: mustprogress uwtable
define noundef nonnull align 8 dereferenceable(64) ptr @_ZN6icu_7513LocaleMatcher7Builder33setSupportedLocalesFromListStringENS_11StringPieceE(ptr noundef nonnull align 8 dereferenceable(64) %this, ptr %locales.coerce0, i32 %locales.coerce1) #1 align 2 personality ptr @__gxx_personality_v0 {
entry:
  %retval = alloca ptr, align 8
  %locales = alloca %"class.icu_75::StringPiece", align 8
  %this.addr = alloca ptr, align 8
  %list = alloca %"class.icu_75::LocalePriorityList", align 8
  %agg.tmp = alloca %"class.icu_75::StringPiece", align 8
  %exn.slot = alloca ptr, align 8
  %ehselector.slot = alloca i32, align 4
  %cleanup.dest.slot = alloca i32, align 4
  %length = alloca i32, align 4
  %i = alloca i32, align 4
  %locale = alloca ptr, align 8
  %0 = getelementptr inbounds { ptr, i32 }, ptr %locales, i32 0, i32 0
  store ptr %locales.coerce0, ptr %0, align 8
  %1 = getelementptr inbounds { ptr, i32 }, ptr %locales, i32 0, i32 1
  store i32 %locales.coerce1, ptr %1, align 8
  store ptr %this, ptr %this.addr, align 8
  %this1 = load ptr, ptr %this.addr, align 8
  call void @llvm.memcpy.p0.p0.i64(ptr align 8 %agg.tmp, ptr align 8 %locales, i64 16, i1 false)
  %errorCode_ = getelementptr inbounds %"class.icu_75::LocaleMatcher::Builder", ptr %this1, i32 0, i32 0
  %2 = getelementptr inbounds { ptr, i32 }, ptr %agg.tmp, i32 0, i32 0
  %3 = load ptr, ptr %2, align 8
  %4 = getelementptr inbounds { ptr, i32 }, ptr %agg.tmp, i32 0, i32 1
  %5 = load i32, ptr %4, align 8
  call void @_ZN6icu_7518LocalePriorityListC1ENS_11StringPieceER10UErrorCode(ptr noundef nonnull align 8 dereferenceable(32) %list, ptr %3, i32 %5, ptr noundef nonnull align 4 dereferenceable(4) %errorCode_)
  %errorCode_2 = getelementptr inbounds %"class.icu_75::LocaleMatcher::Builder", ptr %this1, i32 0, i32 0
  %6 = load i32, ptr %errorCode_2, align 8
  %call = invoke noundef signext i8 @_ZL9U_FAILURE10UErrorCode(i32 noundef %6)
          to label %invoke.cont unwind label %lpad

invoke.cont:                                      ; preds = %entry
  %tobool = icmp ne i8 %call, 0
  br i1 %tobool, label %if.then, label %if.end

if.then:                                          ; preds = %invoke.cont
  store ptr %this1, ptr %retval, align 8
  store i32 1, ptr %cleanup.dest.slot, align 4
  br label %cleanup

lpad:                                             ; preds = %invoke.cont16, %if.end14, %for.body, %if.end7, %invoke.cont3, %if.end, %entry
  %7 = landingpad { ptr, i32 }
          cleanup
  %8 = extractvalue { ptr, i32 } %7, 0
  store ptr %8, ptr %exn.slot, align 8
  %9 = extractvalue { ptr, i32 } %7, 1
  store i32 %9, ptr %ehselector.slot, align 4
  call void @_ZN6icu_7518LocalePriorityListD1Ev(ptr noundef nonnull align 8 dereferenceable(32) %list) #11
  br label %eh.resume

if.end:                                           ; preds = %invoke.cont
  invoke void @_ZN6icu_7513LocaleMatcher7Builder21clearSupportedLocalesEv(ptr noundef nonnull align 8 dereferenceable(64) %this1)
          to label %invoke.cont3 unwind label %lpad

invoke.cont3:                                     ; preds = %if.end
  %call5 = invoke noundef zeroext i1 @_ZN6icu_7513LocaleMatcher7Builder27ensureSupportedLocaleVectorEv(ptr noundef nonnull align 8 dereferenceable(64) %this1)
          to label %invoke.cont4 unwind label %lpad

invoke.cont4:                                     ; preds = %invoke.cont3
  br i1 %call5, label %if.end7, label %if.then6

if.then6:                                         ; preds = %invoke.cont4
  store ptr %this1, ptr %retval, align 8
  store i32 1, ptr %cleanup.dest.slot, align 4
  br label %cleanup

if.end7:                                          ; preds = %invoke.cont4
  %call9 = invoke noundef i32 @_ZNK6icu_7518LocalePriorityList25getLengthIncludingRemovedEv(ptr noundef nonnull align 8 dereferenceable(32) %list)
          to label %invoke.cont8 unwind label %lpad

invoke.cont8:                                     ; preds = %if.end7
  store i32 %call9, ptr %length, align 4
  store i32 0, ptr %i, align 4
  br label %for.cond

for.cond:                                         ; preds = %for.inc, %invoke.cont8
  %10 = load i32, ptr %i, align 4
  %11 = load i32, ptr %length, align 4
  %cmp = icmp slt i32 %10, %11
  br i1 %cmp, label %for.body, label %for.end

for.body:                                         ; preds = %for.cond
  %12 = load i32, ptr %i, align 4
  %call11 = invoke noundef ptr @_ZN6icu_7518LocalePriorityList14orphanLocaleAtEi(ptr noundef nonnull align 8 dereferenceable(32) %list, i32 noundef %12)
          to label %invoke.cont10 unwind label %lpad

invoke.cont10:                                    ; preds = %for.body
  store ptr %call11, ptr %locale, align 8
  %13 = load ptr, ptr %locale, align 8
  %cmp12 = icmp eq ptr %13, null
  br i1 %cmp12, label %if.then13, label %if.end14

if.then13:                                        ; preds = %invoke.cont10
  br label %for.inc

if.end14:                                         ; preds = %invoke.cont10
  %supportedLocales_ = getelementptr inbounds %"class.icu_75::LocaleMatcher::Builder", ptr %this1, i32 0, i32 1
  %14 = load ptr, ptr %supportedLocales_, align 8
  %15 = load ptr, ptr %locale, align 8
  %errorCode_15 = getelementptr inbounds %"class.icu_75::LocaleMatcher::Builder", ptr %this1, i32 0, i32 0
  invoke void @_ZN6icu_757UVector12adoptElementEPvR10UErrorCode(ptr noundef nonnull align 8 dereferenceable(40) %14, ptr noundef %15, ptr noundef nonnull align 4 dereferenceable(4) %errorCode_15)
          to label %invoke.cont16 unwind label %lpad

invoke.cont16:                                    ; preds = %if.end14
  %errorCode_17 = getelementptr inbounds %"class.icu_75::LocaleMatcher::Builder", ptr %this1, i32 0, i32 0
  %16 = load i32, ptr %errorCode_17, align 8
  %call19 = invoke noundef signext i8 @_ZL9U_FAILURE10UErrorCode(i32 noundef %16)
          to label %invoke.cont18 unwind label %lpad

invoke.cont18:                                    ; preds = %invoke.cont16
  %tobool20 = icmp ne i8 %call19, 0
  br i1 %tobool20, label %if.then21, label %if.end22

if.then21:                                        ; preds = %invoke.cont18
  br label %for.end

if.end22:                                         ; preds = %invoke.cont18
  br label %for.inc

for.inc:                                          ; preds = %if.end22, %if.then13
  %17 = load i32, ptr %i, align 4
  %inc = add nsw i32 %17, 1
  store i32 %inc, ptr %i, align 4
  br label %for.cond, !llvm.loop !4

for.end:                                          ; preds = %if.then21, %for.cond
  store ptr %this1, ptr %retval, align 8
  store i32 1, ptr %cleanup.dest.slot, align 4
  br label %cleanup

cleanup:                                          ; preds = %for.end, %if.then6, %if.then
  call void @_ZN6icu_7518LocalePriorityListD1Ev(ptr noundef nonnull align 8 dereferenceable(32) %list) #11
  %18 = load ptr, ptr %retval, align 8
  ret ptr %18

eh.resume:                                        ; preds = %lpad
  %exn = load ptr, ptr %exn.slot, align 8
  %sel = load i32, ptr %ehselector.slot, align 4
  %lpad.val = insertvalue { ptr, i32 } poison, ptr %exn, 0
  %lpad.val23 = insertvalue { ptr, i32 } %lpad.val, i32 %sel, 1
  resume { ptr, i32 } %lpad.val23
}