; Function Attrs: mustprogress uwtable
define noundef nonnull align 8 dereferenceable(64) ptr @_ZN6icu_7513LocaleMatcher7Builder33setSupportedLocalesFromListStringENS_11StringPieceE(ptr noundef nonnull returned align 8 dereferenceable(64) %this, ptr %locales.coerce0, i32 %locales.coerce1) local_unnamed_addr #2 align 2 personality ptr @__gxx_personality_v0 {
entry:
  %list = alloca %"class.icu_75::LocalePriorityList", align 8
  call void @_ZN6icu_7518LocalePriorityListC1ENS_11StringPieceER10UErrorCode(ptr noundef nonnull align 8 dereferenceable(32) %list, ptr %locales.coerce0, i32 %locales.coerce1, ptr noundef nonnull align 4 dereferenceable(4) %this)
  %0 = load i32, ptr %this, align 8
  %cmp.i = icmp slt i32 %0, 1
  br i1 %cmp.i, label %if.end, label %cleanup

lpad.loopexit:                                    ; preds = %for.body, %if.end14
  %lpad.loopexit9 = landingpad { ptr, i32 }
          cleanup
  br label %lpad.body

lpad.loopexit.split-lp:                           ; preds = %if.then.i
  %lpad.loopexit.split-lp10 = landingpad { ptr, i32 }
          cleanup
  br label %lpad.body

lpad.body:                                        ; preds = %lpad.loopexit, %lpad.loopexit.split-lp, %lpad.i
  %eh.lpad-body = phi { ptr, i32 } [ %5, %lpad.i ], [ %lpad.loopexit9, %lpad.loopexit ], [ %lpad.loopexit.split-lp10, %lpad.loopexit.split-lp ]
  call void @_ZN6icu_7518LocalePriorityListD1Ev(ptr noundef nonnull align 8 dereferenceable(32) %list) #15
  resume { ptr, i32 } %eh.lpad-body

if.end:                                           ; preds = %entry
  %supportedLocales_.i = getelementptr inbounds i8, ptr %this, i64 8
  %1 = load ptr, ptr %supportedLocales_.i, align 8
  %cmp.not.i = icmp eq ptr %1, null
  br i1 %cmp.not.i, label %if.end3.i, label %if.then.i

if.then.i:                                        ; preds = %if.end
  invoke void @_ZN6icu_757UVector17removeAllElementsEv(ptr noundef nonnull align 8 dereferenceable(40) %1)
          to label %invoke.cont3 unwind label %lpad.loopexit.split-lp

invoke.cont3:                                     ; preds = %if.then.i
  %.pre = load i32, ptr %this, align 8
  %2 = icmp slt i32 %.pre, 1
  br i1 %2, label %if.end.i, label %cleanup

if.end.i:                                         ; preds = %invoke.cont3
  %.pr = load ptr, ptr %supportedLocales_.i, align 8
  %cmp.not.i5 = icmp eq ptr %.pr, null
  br i1 %cmp.not.i5, label %if.end3.i, label %if.end7

if.end3.i:                                        ; preds = %if.end, %if.end.i
  %call4.i = call noundef ptr @_ZN6icu_757UMemorynwEm(i64 noundef 40) #15
  %new.isnull.i = icmp eq ptr %call4.i, null
  br i1 %new.isnull.i, label %new.cont.i, label %new.notnull.i

new.notnull.i:                                    ; preds = %if.end3.i
  invoke void @_ZN6icu_757UVectorC1EPFvPvEPFa8UElementS4_ER10UErrorCode(ptr noundef nonnull align 8 dereferenceable(40) %call4.i, ptr noundef nonnull @uprv_deleteUObject_75, ptr noundef null, ptr noundef nonnull align 4 dereferenceable(4) %this)
          to label %_ZN6icu_7512LocalPointerINS_7UVectorEEC2EPS1_R10UErrorCode.exit.i unwind label %lpad.i

new.cont.i:                                       ; preds = %if.end3.i
  %3 = load i32, ptr %this, align 8
  %cmp.i.i.i = icmp sgt i32 %3, 0
  br i1 %cmp.i.i.i, label %cleanup, label %if.then.i.i

if.then.i.i:                                      ; preds = %new.cont.i
  store i32 7, ptr %this, align 8
  br label %cleanup

_ZN6icu_7512LocalPointerINS_7UVectorEEC2EPS1_R10UErrorCode.exit.i: ; preds = %new.notnull.i
  %.pre.i = load i32, ptr %this, align 8
  %4 = icmp slt i32 %.pre.i, 1
  br i1 %4, label %cleanup.thread.i, label %delete.notnull.i.i

lpad.i:                                           ; preds = %new.notnull.i
  %5 = landingpad { ptr, i32 }
          cleanup
  call void @_ZN6icu_757UMemorydlEPv(ptr noundef nonnull %call4.i) #15
  br label %lpad.body

cleanup.thread.i:                                 ; preds = %_ZN6icu_7512LocalPointerINS_7UVectorEEC2EPS1_R10UErrorCode.exit.i
  store ptr %call4.i, ptr %supportedLocales_.i, align 8
  br label %if.end7

delete.notnull.i.i:                               ; preds = %_ZN6icu_7512LocalPointerINS_7UVectorEEC2EPS1_R10UErrorCode.exit.i
  %vtable.i.i = load ptr, ptr %call4.i, align 8
  %vfn.i.i = getelementptr inbounds i8, ptr %vtable.i.i, i64 8
  %6 = load ptr, ptr %vfn.i.i, align 8
  call void %6(ptr noundef nonnull align 8 dereferenceable(40) %call4.i) #15
  br label %cleanup

if.end7:                                          ; preds = %if.end.i, %cleanup.thread.i
  %listLength.i = getelementptr inbounds i8, ptr %list, i64 8
  %7 = load i32, ptr %listLength.i, align 8
  %cmp11 = icmp sgt i32 %7, 0
  br i1 %cmp11, label %for.body, label %cleanup

for.body:                                         ; preds = %if.end7, %for.body.backedge
  %i.012 = phi i32 [ %i.012.be, %for.body.backedge ], [ 0, %if.end7 ]
  %call11 = invoke noundef ptr @_ZN6icu_7518LocalePriorityList14orphanLocaleAtEi(ptr noundef nonnull align 8 dereferenceable(32) %list, i32 noundef %i.012)
          to label %invoke.cont10 unwind label %lpad.loopexit

invoke.cont10:                                    ; preds = %for.body
  %cmp12 = icmp eq ptr %call11, null
  br i1 %cmp12, label %for.inc, label %if.end14

if.end14:                                         ; preds = %invoke.cont10
  %8 = load ptr, ptr %supportedLocales_.i, align 8
  invoke void @_ZN6icu_757UVector12adoptElementEPvR10UErrorCode(ptr noundef nonnull align 8 dereferenceable(40) %8, ptr noundef nonnull %call11, ptr noundef nonnull align 4 dereferenceable(4) %this)
          to label %invoke.cont16 unwind label %lpad.loopexit

invoke.cont16:                                    ; preds = %if.end14
  %9 = load i32, ptr %this, align 8
  %cmp.i6 = icmp slt i32 %9, 1
  %inc = add nuw nsw i32 %i.012, 1
  %cmp = icmp slt i32 %inc, %7
  %or.cond = select i1 %cmp.i6, i1 %cmp, i1 false
  br i1 %or.cond, label %for.body.backedge, label %cleanup

for.inc:                                          ; preds = %invoke.cont10
  %inc.old = add nuw nsw i32 %i.012, 1
  %cmp.old = icmp slt i32 %inc.old, %7
  br i1 %cmp.old, label %for.body.backedge, label %cleanup

for.body.backedge:                                ; preds = %for.inc, %invoke.cont16
  %i.012.be = phi i32 [ %inc.old, %for.inc ], [ %inc, %invoke.cont16 ]
  br label %for.body, !llvm.loop !4

cleanup:                                          ; preds = %invoke.cont16, %for.inc, %if.end7, %new.cont.i, %if.then.i.i, %delete.notnull.i.i, %invoke.cont3, %entry
  call void @_ZN6icu_7518LocalePriorityListD1Ev(ptr noundef nonnull align 8 dereferenceable(32) %list) #15
  ret ptr %this
}